(dp1
S'Gengjie'
p2
(lp3
S'123'
p4
aS'jie@12.com'
p5
asS'Xiaoming'
p6
(lp7
S'456'
p8
aS'ming@456.com'
p9
asS'test2'
p10
(lp11
S'2000'
p12
aS'2@22.com'
p13
asS'Redis'
p14
(lp15
S'789'
p16
aS'123@redis.org'
p17
as.