(dp1
S'Xiaoming'
p2
(lp3
S'456'
p4
aS'ming@456.com'
p5
asS'test2'
p6
(lp7
S'2000'
p8
aS'2@22.com'
p9
asS'Redis'
p10
(lp11
S'789'
p12
aS'123@redis.org'
p13
asS'yanhao'
p14
(lp15
S'222'
p16
aS'2@2.cn'
p17
as.